target datalayout = "e-m:e-p270:32:32-p271:32:32-p272:64:64-i64:64-i128:128-f80:128-n8:16:32:64-S128"
target triple = "x86_64-pc-linux-gnu"

; Function Attrs: nounwind uwtable
define dso_local void @transformContainerType(ptr noundef %0, ptr noundef %1) #0 {
  %3 = alloca ptr, align 8
  %4 = alloca ptr, align 8
  store ptr %0, ptr %3, align 8
  store ptr %1, ptr %4, align 8
  %5 = load ptr, ptr %3, align 8
  %6 = load i32, ptr %5, align 4
  %7 = load ptr, ptr %4, align 8
  %8 = call i32 @getBaseTypeAndTypmod(i32 noundef %6, ptr noundef %7)
  %9 = load ptr, ptr %3, align 8
  store i32 %8, ptr %9, align 4
  %10 = load ptr, ptr %3, align 8
  %11 = load i32, ptr %10, align 4
  %12 = icmp eq i32 %11, 22
  br i1 %12, label %13, label %15

13:                                               ; preds = %2
  %14 = load ptr, ptr %3, align 8
  store i32 1005, ptr %14, align 4
  br label %22

15:                                               ; preds = %2
  %16 = load ptr, ptr %3, align 8
  %17 = load i32, ptr %16, align 4
  %18 = icmp eq i32 %17, 30
  br i1 %18, label %19, label %21

19:                                               ; preds = %15
  %20 = load ptr, ptr %3, align 8
  store i32 1028, ptr %20, align 4
  br label %21

21:                                               ; preds = %19, %15
  br label %22

22:                                               ; preds = %21, %13
  ret void
}