; Function Attrs: nounwind uwtable
define dso_local void @transformContainerType(ptr noundef captures(none) %0, ptr noundef %1) local_unnamed_addr #0 {
  %3 = load i32, ptr %0, align 4
  %4 = tail call i32 @getBaseTypeAndTypmod(i32 noundef %3, ptr noundef %1) #8
  store i32 %4, ptr %0, align 4
  switch i32 %4, label %6 [
    i32 22, label %.sink.split
    i32 30, label %5
  ]

5:                                                ; preds = %2
  br label %.sink.split

.sink.split:                                      ; preds = %2, %5
  %.sink = phi i32 [ 1028, %5 ], [ 1005, %2 ]
  store i32 %.sink, ptr %0, align 4
  br label %6

6:                                                ; preds = %.sink.split, %2
  ret void
}